; Function Attrs: cold nounwind optsize uwtable
define void @swri_rematrix_free(ptr noundef %0) local_unnamed_addr #3 {
  %2 = getelementptr inbounds nuw i8, ptr %0, i64 65384
  tail call void @av_freep(ptr noundef nonnull %2) #11
  %3 = getelementptr inbounds nuw i8, ptr %0, i64 65392
  tail call void @av_freep(ptr noundef nonnull %3) #11
  %4 = getelementptr inbounds nuw i8, ptr %0, i64 65408
  tail call void @av_freep(ptr noundef nonnull %4) #11
  %5 = getelementptr inbounds nuw i8, ptr %0, i64 65400
  tail call void @av_freep(ptr noundef nonnull %5) #11
  ret void
}